; Function Attrs: mustprogress nounwind uwtable
define dso_local noundef double @_ZN8simdjson8internal10from_charsEPKc(ptr noundef %0) local_unnamed_addr #6 personality ptr @__gxx_personality_v0 {
  %2 = alloca ptr, align 8
  %3 = alloca %"struct.simdjson::internal::decimal", align 4
  %4 = load i8, ptr %0, align 1, !tbaa !4
  %5 = icmp eq i8 %4, 45
  %spec.select.idx = zext i1 %5 to i64
  %spec.select = getelementptr inbounds nuw i8, ptr %0, i64 %spec.select.idx
  call void @llvm.lifetime.start.p0(i64 8, ptr nonnull %2)
  store ptr %spec.select, ptr %2, align 8, !tbaa !18
  call void @llvm.lifetime.start.p0(i64 780, ptr nonnull %3) #45
  call void @_ZN8simdjson8internal13parse_decimalERPKc(ptr dead_on_unwind nonnull writable sret(%"struct.simdjson::internal::decimal") align 4 %3, ptr noundef nonnull align 8 dereferenceable(8) %2) #45
  %6 = invoke { i64, i32 } @_ZN8simdjson8internal13compute_floatINS0_13binary_formatIdEEEENS0_17adjusted_mantissaERNS0_7decimalE(ptr noundef nonnull align 4 dereferenceable(780) %3)
          to label %7 unwind label %13

7:                                                ; preds = %1
  call void @llvm.lifetime.end.p0(i64 780, ptr nonnull %3) #45
  call void @llvm.lifetime.end.p0(i64 8, ptr nonnull %2)
  %.fca.0.extract = extractvalue { i64, i32 } %6, 0
  %.fca.1.extract = extractvalue { i64, i32 } %6, 1
  %8 = zext i32 %.fca.1.extract to i64
  %9 = shl i64 %8, 52
  %10 = or i64 %9, %.fca.0.extract
  %11 = or i64 %10, -9223372036854775808
  %spec.select9 = select i1 %5, i64 %11, i64 %10
  %12 = bitcast i64 %spec.select9 to double
  ret double %12

13:                                               ; preds = %1
  %14 = landingpad { ptr, i32 }
          catch ptr null
  %15 = extractvalue { ptr, i32 } %14, 0
  call void @__clang_call_terminate(ptr %15) #46
  unreachable
}